; Function Attrs: mustprogress uwtable
define hidden noalias noundef ptr @_Z13mk_der_tacticR11ast_manager(ptr noundef nonnull align 8 dereferenceable(976) %0) local_unnamed_addr #3 personality ptr @__gxx_personality_v0 {
  %2 = tail call noalias noundef ptr @_ZN6memory8allocateEm(i64 noundef 24)
  %3 = getelementptr inbounds nuw i8, ptr %2, i64 8
  store i32 0, ptr %3, align 8, !tbaa !3
  store ptr getelementptr inbounds nuw inrange(-16, 192) (i8, ptr @_ZTV10der_tactic, i64 16), ptr %2, align 8, !tbaa !9
  %4 = tail call noalias noundef ptr @_ZN6memory8allocateEm(i64 noundef 16)
  store ptr %0, ptr %4, align 8, !tbaa !11
  %5 = getelementptr inbounds nuw i8, ptr %4, i64 8
  tail call void @_ZN12der_rewriterC1ER11ast_manager(ptr noundef nonnull align 8 dereferenceable(8) %5, ptr noundef nonnull align 8 dereferenceable(976) %0)
  %6 = getelementptr inbounds nuw i8, ptr %2, i64 16
  store ptr %4, ptr %6, align 8, !tbaa !14
  ret ptr %2
}